target datalayout = "e-m:e-p270:32:32-p271:32:32-p272:64:64-i64:64-i128:128-f80:128-n8:16:32:64-S128"
target triple = "x86_64-pc-linux-gnu"

%struct.Curl_easy = type { i32, i64, i64, ptr, %struct.Curl_llist_node, %struct.Curl_llist_node, i32, i32, %struct.Curl_message, %struct.easy_pollset, %struct.Names, ptr, ptr, ptr, %struct.SingleRequest, %struct.UserDefined, ptr, ptr, %struct.Progress, %struct.UrlState, ptr, %struct.PureInfo, %struct.curl_tlssessioninfo }
%struct.Curl_llist_node = type { ptr, ptr, ptr, ptr }
%struct.Curl_message = type { %struct.Curl_llist_node, %struct.CURLMsg }
%struct.CURLMsg = type { i32, ptr, %union.anon }
%union.anon = type { ptr }
%struct.easy_pollset = type { [5 x i32], i32, [5 x i8] }
%struct.Names = type { ptr, i32 }
%struct.SingleRequest = type <{ i64, i64, i64, i64, %struct.curltime, i32, i32, i32, i32, i64, i32, i32, i32, i32, ptr, ptr, %struct.bufq, i64, i64, ptr, ptr, %union.anon.0, ptr, i8, i32, [3 x i8] }>
%struct.curltime = type { i64, i32 }
%struct.bufq = type { ptr, ptr, ptr, ptr, i64, i64, i64, i32 }
%union.anon.0 = type { ptr }
%struct.UserDefined = type <{ ptr, ptr, ptr, ptr, ptr, ptr, i16, [6 x i8], i64, i64, i64, ptr, ptr, i64, i16, i16, [4 x i8], ptr, ptr, ptr, ptr, ptr, ptr, ptr, ptr, ptr, ptr, ptr, ptr, ptr, ptr, ptr, ptr, ptr, ptr, ptr, ptr, ptr, ptr, ptr, i32, i32, i32, i32, i32, [4 x i8], i64, i64, i64, i64, i64, i64, i64, i64, ptr, ptr, %struct.curl_mimepart, ptr, ptr, i64, i8, i8, i8, [5 x i8], %struct.ssl_config_data, %struct.ssl_config_data, ptr, i16, i8, i8, [4 x i8], %struct.ssl_general_config, i32, i32, i32, [4 x i8], ptr, ptr, i8, [7 x i8], i64, i8, i8, i8, i8, i32, ptr, ptr, ptr, i8, i8, [2 x i8], i32, [63 x ptr], [8 x ptr], i32, i32, i32, [4 x i8], ptr, ptr, ptr, ptr, ptr, i8, [3 x i8], i32, i32, i32, i64, %struct.Curl_data_priority, ptr, ptr, i64, ptr, i64, ptr, ptr, ptr, i8, [3 x i8], i32, i8, i8, i64, [6 x i8] }>
%struct.curl_mimepart = type { ptr, ptr, i32, i32, ptr, ptr, ptr, ptr, ptr, ptr, ptr, ptr, ptr, ptr, ptr, i64, %struct.mime_state, ptr, %struct.mime_encoder_state, i64 }
%struct.mime_state = type { i32, ptr, i64 }
%struct.mime_encoder_state = type { i64, i64, i64, [256 x i8] }
%struct.ssl_config_data = type { %struct.ssl_primary_config, i64, ptr, ptr, ptr, ptr, ptr, ptr, ptr, i16 }
%struct.ssl_primary_config = type { ptr, ptr, ptr, ptr, ptr, ptr, ptr, ptr, ptr, ptr, ptr, ptr, i8, i32, i8, i8 }
%struct.ssl_general_config = type { i64, i32 }
%struct.Curl_data_priority = type { ptr, ptr, i32, i8 }
%struct.Progress = type { i64, %struct.pgrs_dir, %struct.pgrs_dir, i64, i64, i32, i32, i64, i64, i64, i64, i64, i64, i64, i64, i64, %struct.curltime, %struct.curltime, %struct.curltime, %struct.curltime, [6 x i64], [6 x %struct.curltime], i32, i8 }
%struct.pgrs_dir = type { i64, i64, i64, %struct.pgrs_measure }
%struct.pgrs_measure = type { %struct.curltime, i64 }
%struct.UrlState = type { %struct.curltime, i64, i64, %struct.dynbuf, ptr, i64, ptr, i32, i32, i32, ptr, i64, i32, i64, i32, ptr, %struct.digestdata, %struct.digestdata, %struct.auth, %struct.auth, %struct.Curl_async, ptr, %struct.curltime, %struct.Curl_tree, %struct.Curl_llist, [15 x %struct.time_node], ptr, ptr, i64, i64, %struct.Curl_data_priority, ptr, ptr, ptr, %struct.urlpieces, ptr, ptr, ptr, ptr, ptr, i64, %struct.dynbuf, %struct.Curl_llist, [2 x %struct.curl_header], ptr, i32, ptr, ptr, %struct.store_netrc, %struct.dynamically_allocated_data, i8, i8, i8, i8, i32 }
%struct.digestdata = type { ptr, ptr, ptr, ptr, ptr, ptr, i32, i8, i8 }
%struct.auth = type { i64, i64, i64, i8 }
%struct.Curl_async = type { ptr, ptr, ptr, ptr, i32, i32, i8 }
%struct.Curl_tree = type { ptr, ptr, ptr, ptr, %struct.curltime, ptr }
%struct.time_node = type { %struct.Curl_llist_node, %struct.curltime, i32 }
%struct.urlpieces = type { ptr, ptr, ptr, ptr, ptr, ptr, ptr, ptr }
%struct.dynbuf = type { ptr, i64, i64, i64 }
%struct.Curl_llist = type { ptr, ptr, ptr, i64 }
%struct.curl_header = type { ptr, ptr, i64, i64, i32, ptr }
%struct.store_netrc = type { %struct.dynbuf, ptr, i8 }
%struct.dynamically_allocated_data = type { ptr, ptr, ptr, ptr, ptr, ptr, ptr, ptr, ptr, ptr, ptr, ptr, ptr }
%struct.PureInfo = type { i32, i32, i32, i64, i64, i64, i64, i64, ptr, ptr, i64, i32, %struct.ip_quadruple, i32, ptr, i32, %struct.curl_certinfo, i32, i8 }
%struct.ip_quadruple = type { [46 x i8], [46 x i8], i32, i32 }
%struct.curl_certinfo = type { i32, ptr }
%struct.curl_tlssessioninfo = type { i32, ptr }
%struct.Curl_data_prio_node = type { ptr, ptr }

@Curl_cfree = external global ptr, align 8
@Curl_ccalloc = external global ptr, align 8

; Function Attrs: nounwind uwtable
define internal void @priority_remove_child(ptr noundef %0, ptr noundef %1) #0 {
  %3 = alloca ptr, align 8
  %4 = alloca ptr, align 8
  %5 = alloca ptr, align 8
  %6 = alloca ptr, align 8
  store ptr %0, ptr %3, align 8, !tbaa !4
  store ptr %1, ptr %4, align 8, !tbaa !4
  call void @llvm.lifetime.start.p0(i64 8, ptr %5) #8
  %7 = load ptr, ptr %3, align 8, !tbaa !4
  %8 = getelementptr inbounds nuw %struct.Curl_easy, ptr %7, i32 0, i32 15
  %9 = getelementptr inbounds nuw %struct.UserDefined, ptr %8, i32 0, i32 110
  %10 = getelementptr inbounds nuw %struct.Curl_data_priority, ptr %9, i32 0, i32 1
  store ptr %10, ptr %5, align 8, !tbaa !268
  call void @llvm.lifetime.start.p0(i64 8, ptr %6) #8
  %11 = load ptr, ptr %3, align 8, !tbaa !4
  %12 = getelementptr inbounds nuw %struct.Curl_easy, ptr %11, i32 0, i32 15
  %13 = getelementptr inbounds nuw %struct.UserDefined, ptr %12, i32 0, i32 110
  %14 = getelementptr inbounds nuw %struct.Curl_data_priority, ptr %13, i32 0, i32 1
  %15 = load ptr, ptr %14, align 8, !tbaa !129
  store ptr %15, ptr %6, align 8, !tbaa !265
  br label %16

16:                                               ; preds = %2
  br label %17

17:                                               ; preds = %16
  br label %18

18:                                               ; preds = %17
  br label %19

19:                                               ; preds = %30, %18
  %20 = load ptr, ptr %6, align 8, !tbaa !265
  %21 = icmp ne ptr %20, null
  br i1 %21, label %22, label %28

22:                                               ; preds = %19
  %23 = load ptr, ptr %6, align 8, !tbaa !265
  %24 = getelementptr inbounds nuw %struct.Curl_data_prio_node, ptr %23, i32 0, i32 1
  %25 = load ptr, ptr %24, align 8, !tbaa !130
  %26 = load ptr, ptr %4, align 8, !tbaa !4
  %27 = icmp ne ptr %25, %26
  br label %28

28:                                               ; preds = %22, %19
  %29 = phi i1 [ false, %19 ], [ %27, %22 ]
  br i1 %29, label %30, label %36

30:                                               ; preds = %28
  %31 = load ptr, ptr %6, align 8, !tbaa !265
  %32 = getelementptr inbounds nuw %struct.Curl_data_prio_node, ptr %31, i32 0, i32 0
  store ptr %32, ptr %5, align 8, !tbaa !268
  %33 = load ptr, ptr %6, align 8, !tbaa !265
  %34 = getelementptr inbounds nuw %struct.Curl_data_prio_node, ptr %33, i32 0, i32 0
  %35 = load ptr, ptr %34, align 8, !tbaa !266
  store ptr %35, ptr %6, align 8, !tbaa !265
  br label %19, !llvm.loop !272

36:                                               ; preds = %28
  br label %37

37:                                               ; preds = %36
  br label %38

38:                                               ; preds = %37
  br label %39

39:                                               ; preds = %38
  %40 = load ptr, ptr %6, align 8, !tbaa !265
  %41 = icmp ne ptr %40, null
  br i1 %41, label %42, label %49

42:                                               ; preds = %39
  %43 = load ptr, ptr %6, align 8, !tbaa !265
  %44 = getelementptr inbounds nuw %struct.Curl_data_prio_node, ptr %43, i32 0, i32 0
  %45 = load ptr, ptr %44, align 8, !tbaa !266
  %46 = load ptr, ptr %5, align 8, !tbaa !268
  store ptr %45, ptr %46, align 8, !tbaa !265
  %47 = load ptr, ptr @Curl_cfree, align 8, !tbaa !11
  %48 = load ptr, ptr %6, align 8, !tbaa !265
  call void %47(ptr noundef %48)
  br label %49

49:                                               ; preds = %42, %39
  %50 = load ptr, ptr %4, align 8, !tbaa !4
  %51 = getelementptr inbounds nuw %struct.Curl_easy, ptr %50, i32 0, i32 15
  %52 = getelementptr inbounds nuw %struct.UserDefined, ptr %51, i32 0, i32 110
  %53 = getelementptr inbounds nuw %struct.Curl_data_priority, ptr %52, i32 0, i32 0
  store ptr null, ptr %53, align 8, !tbaa !132
  %54 = load ptr, ptr %4, align 8, !tbaa !4
  %55 = getelementptr inbounds nuw %struct.Curl_easy, ptr %54, i32 0, i32 15
  %56 = getelementptr inbounds nuw %struct.UserDefined, ptr %55, i32 0, i32 110
  %57 = getelementptr inbounds nuw %struct.Curl_data_priority, ptr %56, i32 0, i32 3
  %58 = load i8, ptr %57, align 4
  %59 = and i8 %58, -2
  %60 = or i8 %59, 0
  store i8 %60, ptr %57, align 4
  call void @llvm.lifetime.end.p0(i64 8, ptr %6) #8
  call void @llvm.lifetime.end.p0(i64 8, ptr %5) #8
  ret void
}

; Function Attrs: nounwind uwtable
define dso_local i32 @Curl_data_priority_add_child(ptr noundef %0, ptr noundef %1, i1 noundef zeroext %2) #0 {
  %4 = alloca i32, align 4
  %5 = alloca ptr, align 8
  %6 = alloca ptr, align 8
  %7 = alloca i8, align 1
  %8 = alloca ptr, align 8
  %9 = alloca ptr, align 8
  %10 = alloca i32, align 4
  %11 = alloca ptr, align 8
  store ptr %0, ptr %5, align 8, !tbaa !4
  store ptr %1, ptr %6, align 8, !tbaa !4
  %12 = zext i1 %2 to i8
  store i8 %12, ptr %7, align 1, !tbaa !209
  %13 = load ptr, ptr %6, align 8, !tbaa !4
  %14 = getelementptr inbounds nuw %struct.Curl_easy, ptr %13, i32 0, i32 15
  %15 = getelementptr inbounds nuw %struct.UserDefined, ptr %14, i32 0, i32 110
  %16 = getelementptr inbounds nuw %struct.Curl_data_priority, ptr %15, i32 0, i32 0
  %17 = load ptr, ptr %16, align 8, !tbaa !132
  %18 = icmp ne ptr %17, null
  br i1 %18, label %19, label %26

19:                                               ; preds = %3
  %20 = load ptr, ptr %6, align 8, !tbaa !4
  %21 = getelementptr inbounds nuw %struct.Curl_easy, ptr %20, i32 0, i32 15
  %22 = getelementptr inbounds nuw %struct.UserDefined, ptr %21, i32 0, i32 110
  %23 = getelementptr inbounds nuw %struct.Curl_data_priority, ptr %22, i32 0, i32 0
  %24 = load ptr, ptr %23, align 8, !tbaa !132
  %25 = load ptr, ptr %6, align 8, !tbaa !4
  call void @priority_remove_child(ptr noundef %24, ptr noundef %25)
  br label %26

26:                                               ; preds = %19, %3
  %27 = load ptr, ptr %5, align 8, !tbaa !4
  %28 = icmp ne ptr %27, null
  br i1 %28, label %29, label %127

29:                                               ; preds = %26
  call void @llvm.lifetime.start.p0(i64 8, ptr %8) #8
  call void @llvm.lifetime.start.p0(i64 8, ptr %9) #8
  %30 = load ptr, ptr @Curl_ccalloc, align 8, !tbaa !11
  %31 = call ptr %30(i64 noundef 1, i64 noundef 16)
  store ptr %31, ptr %9, align 8, !tbaa !265
  %32 = load ptr, ptr %9, align 8, !tbaa !265
  %33 = icmp ne ptr %32, null
  br i1 %33, label %35, label %34

34:                                               ; preds = %29
  store i32 27, ptr %4, align 4
  store i32 1, ptr %10, align 4
  br label %124

35:                                               ; preds = %29
  %36 = load ptr, ptr %6, align 8, !tbaa !4
  %37 = load ptr, ptr %9, align 8, !tbaa !265
  %38 = getelementptr inbounds nuw %struct.Curl_data_prio_node, ptr %37, i32 0, i32 1
  store ptr %36, ptr %38, align 8, !tbaa !130
  %39 = load ptr, ptr %5, align 8, !tbaa !4
  %40 = getelementptr inbounds nuw %struct.Curl_easy, ptr %39, i32 0, i32 15
  %41 = getelementptr inbounds nuw %struct.UserDefined, ptr %40, i32 0, i32 110
  %42 = getelementptr inbounds nuw %struct.Curl_data_priority, ptr %41, i32 0, i32 1
  %43 = load ptr, ptr %42, align 8, !tbaa !129
  %44 = icmp ne ptr %43, null
  br i1 %44, label %45, label %95

45:                                               ; preds = %35
  %46 = load i8, ptr %7, align 1, !tbaa !209, !range !213, !noundef !214
  %47 = trunc i8 %46 to i1
  br i1 %47, label %48, label %95

48:                                               ; preds = %45
  call void @llvm.lifetime.start.p0(i64 8, ptr %11) #8
  %49 = load ptr, ptr %5, align 8, !tbaa !4
  %50 = getelementptr inbounds nuw %struct.Curl_easy, ptr %49, i32 0, i32 15
  %51 = getelementptr inbounds nuw %struct.UserDefined, ptr %50, i32 0, i32 110
  %52 = getelementptr inbounds nuw %struct.Curl_data_priority, ptr %51, i32 0, i32 1
  %53 = load ptr, ptr %52, align 8, !tbaa !129
  store ptr %53, ptr %11, align 8, !tbaa !265
  br label %54

54:                                               ; preds = %57, %48
  %55 = load ptr, ptr %11, align 8, !tbaa !265
  %56 = icmp ne ptr %55, null
  br i1 %56, label %57, label %68

57:                                               ; preds = %54
  %58 = load ptr, ptr %6, align 8, !tbaa !4
  %59 = load ptr, ptr %11, align 8, !tbaa !265
  %60 = getelementptr inbounds nuw %struct.Curl_data_prio_node, ptr %59, i32 0, i32 1
  %61 = load ptr, ptr %60, align 8, !tbaa !130
  %62 = getelementptr inbounds nuw %struct.Curl_easy, ptr %61, i32 0, i32 15
  %63 = getelementptr inbounds nuw %struct.UserDefined, ptr %62, i32 0, i32 110
  %64 = getelementptr inbounds nuw %struct.Curl_data_priority, ptr %63, i32 0, i32 0
  store ptr %58, ptr %64, align 8, !tbaa !132
  %65 = load ptr, ptr %11, align 8, !tbaa !265
  %66 = getelementptr inbounds nuw %struct.Curl_data_prio_node, ptr %65, i32 0, i32 0
  %67 = load ptr, ptr %66, align 8, !tbaa !266
  store ptr %67, ptr %11, align 8, !tbaa !265
  br label %54, !llvm.loop !267

68:                                               ; preds = %54
  %69 = load ptr, ptr %6, align 8, !tbaa !4
  %70 = getelementptr inbounds nuw %struct.Curl_easy, ptr %69, i32 0, i32 15
  %71 = getelementptr inbounds nuw %struct.UserDefined, ptr %70, i32 0, i32 110
  %72 = getelementptr inbounds nuw %struct.Curl_data_priority, ptr %71, i32 0, i32 1
  store ptr %72, ptr %8, align 8, !tbaa !268
  br label %73

73:                                               ; preds = %77, %68
  %74 = load ptr, ptr %8, align 8, !tbaa !268
  %75 = load ptr, ptr %74, align 8, !tbaa !265
  %76 = icmp ne ptr %75, null
  br i1 %76, label %77, label %81

77:                                               ; preds = %73
  %78 = load ptr, ptr %8, align 8, !tbaa !268
  %79 = load ptr, ptr %78, align 8, !tbaa !265
  %80 = getelementptr inbounds nuw %struct.Curl_data_prio_node, ptr %79, i32 0, i32 0
  store ptr %80, ptr %8, align 8, !tbaa !268
  br label %73, !llvm.loop !270

81:                                               ; preds = %73
  br label %82

82:                                               ; preds = %81
  br label %83

83:                                               ; preds = %82
  br label %84

84:                                               ; preds = %83
  %85 = load ptr, ptr %5, align 8, !tbaa !4
  %86 = getelementptr inbounds nuw %struct.Curl_easy, ptr %85, i32 0, i32 15
  %87 = getelementptr inbounds nuw %struct.UserDefined, ptr %86, i32 0, i32 110
  %88 = getelementptr inbounds nuw %struct.Curl_data_priority, ptr %87, i32 0, i32 1
  %89 = load ptr, ptr %88, align 8, !tbaa !129
  %90 = load ptr, ptr %8, align 8, !tbaa !268
  store ptr %89, ptr %90, align 8, !tbaa !265
  %91 = load ptr, ptr %5, align 8, !tbaa !4
  %92 = getelementptr inbounds nuw %struct.Curl_easy, ptr %91, i32 0, i32 15
  %93 = getelementptr inbounds nuw %struct.UserDefined, ptr %92, i32 0, i32 110
  %94 = getelementptr inbounds nuw %struct.Curl_data_priority, ptr %93, i32 0, i32 1
  store ptr null, ptr %94, align 8, !tbaa !129
  call void @llvm.lifetime.end.p0(i64 8, ptr %11) #8
  br label %95

95:                                               ; preds = %84, %45, %35
  %96 = load ptr, ptr %5, align 8, !tbaa !4
  %97 = getelementptr inbounds nuw %struct.Curl_easy, ptr %96, i32 0, i32 15
  %98 = getelementptr inbounds nuw %struct.UserDefined, ptr %97, i32 0, i32 110
  %99 = getelementptr inbounds nuw %struct.Curl_data_priority, ptr %98, i32 0, i32 1
  store ptr %99, ptr %8, align 8, !tbaa !268
  br label %100

100:                                              ; preds = %104, %95
  %101 = load ptr, ptr %8, align 8, !tbaa !268
  %102 = load ptr, ptr %101, align 8, !tbaa !265
  %103 = icmp ne ptr %102, null
  br i1 %103, label %104, label %118

104:                                              ; preds = %100
  %105 = load ptr, ptr %8, align 8, !tbaa !268
  %106 = load ptr, ptr %105, align 8, !tbaa !265
  %107 = getelementptr inbounds nuw %struct.Curl_data_prio_node, ptr %106, i32 0, i32 1
  %108 = load ptr, ptr %107, align 8, !tbaa !130
  %109 = getelementptr inbounds nuw %struct.Curl_easy, ptr %108, i32 0, i32 15
  %110 = getelementptr inbounds nuw %struct.UserDefined, ptr %109, i32 0, i32 110
  %111 = getelementptr inbounds nuw %struct.Curl_data_priority, ptr %110, i32 0, i32 3
  %112 = load i8, ptr %111, align 4
  %113 = and i8 %112, -2
  %114 = or i8 %113, 0
  store i8 %114, ptr %111, align 4
  %115 = load ptr, ptr %8, align 8, !tbaa !268
  %116 = load ptr, ptr %115, align 8, !tbaa !265
  %117 = getelementptr inbounds nuw %struct.Curl_data_prio_node, ptr %116, i32 0, i32 0
  store ptr %117, ptr %8, align 8, !tbaa !268
  br label %100, !llvm.loop !271

118:                                              ; preds = %100
  br label %119

119:                                              ; preds = %118
  br label %120

120:                                              ; preds = %119
  br label %121

121:                                              ; preds = %120
  %122 = load ptr, ptr %9, align 8, !tbaa !265
  %123 = load ptr, ptr %8, align 8, !tbaa !268
  store ptr %122, ptr %123, align 8, !tbaa !265
  store i32 0, ptr %10, align 4
  br label %124

124:                                              ; preds = %121, %34
  call void @llvm.lifetime.end.p0(i64 8, ptr %9) #8
  call void @llvm.lifetime.end.p0(i64 8, ptr %8) #8
  %125 = load i32, ptr %10, align 4
  switch i32 %125, label %147 [
    i32 0, label %126
    i32 1, label %145
  ]

126:                                              ; preds = %124
  br label %127

127:                                              ; preds = %126, %26
  %128 = load ptr, ptr %5, align 8, !tbaa !4
  %129 = load ptr, ptr %6, align 8, !tbaa !4
  %130 = getelementptr inbounds nuw %struct.Curl_easy, ptr %129, i32 0, i32 15
  %131 = getelementptr inbounds nuw %struct.UserDefined, ptr %130, i32 0, i32 110
  %132 = getelementptr inbounds nuw %struct.Curl_data_priority, ptr %131, i32 0, i32 0
  store ptr %128, ptr %132, align 8, !tbaa !132
  %133 = load i8, ptr %7, align 1, !tbaa !209, !range !213, !noundef !214
  %134 = trunc i8 %133 to i1
  %135 = zext i1 %134 to i32
  %136 = load ptr, ptr %6, align 8, !tbaa !4
  %137 = getelementptr inbounds nuw %struct.Curl_easy, ptr %136, i32 0, i32 15
  %138 = getelementptr inbounds nuw %struct.UserDefined, ptr %137, i32 0, i32 110
  %139 = getelementptr inbounds nuw %struct.Curl_data_priority, ptr %138, i32 0, i32 3
  %140 = trunc i32 %135 to i8
  %141 = load i8, ptr %139, align 4
  %142 = and i8 %140, 1
  %143 = and i8 %141, -2
  %144 = or i8 %143, %142
  store i8 %144, ptr %139, align 4
  store i32 0, ptr %4, align 4
  br label %145

145:                                              ; preds = %127, %124
  %146 = load i32, ptr %4, align 4
  ret i32 %146

147:                                              ; preds = %124
  unreachable
}