; Function Attrs: nounwind uwtable
define dso_local range(i32 0, 28) i32 @Curl_data_priority_add_child(ptr noundef %0, ptr noundef %1, i1 noundef zeroext %2) local_unnamed_addr #0 {
  %4 = getelementptr inbounds nuw i8, ptr %1, i64 2464
  %5 = load ptr, ptr %4, align 8, !tbaa !113
  %.not = icmp eq ptr %5, null
  br i1 %.not, label %17, label %6

6:                                                ; preds = %3
  %7 = getelementptr inbounds nuw i8, ptr %5, i64 2472
  br label %8

8:                                                ; preds = %9, %6
  %.013.i = phi ptr [ %7, %6 ], [ %.0.i, %9 ]
  %.0.i = load ptr, ptr %.013.i, align 8, !tbaa !109
  %.not.i = icmp eq ptr %.0.i, null
  br i1 %.not.i, label %priority_remove_child.exit, label %9

9:                                                ; preds = %8
  %10 = getelementptr inbounds nuw i8, ptr %.0.i, i64 8
  %11 = load ptr, ptr %10, align 8, !tbaa !110
  %.not14.i = icmp eq ptr %11, %1
  br i1 %.not14.i, label %.critedge.i, label %8, !llvm.loop !117

.critedge.i:                                      ; preds = %9
  %12 = load ptr, ptr %.0.i, align 8, !tbaa !112
  store ptr %12, ptr %.013.i, align 8, !tbaa !109
  %13 = load ptr, ptr @Curl_cfree, align 8, !tbaa !4
  tail call void %13(ptr noundef nonnull %.0.i) #12
  br label %priority_remove_child.exit

priority_remove_child.exit:                       ; preds = %8, %.critedge.i
  store ptr null, ptr %4, align 8, !tbaa !113
  %14 = getelementptr inbounds nuw i8, ptr %1, i64 2484
  %15 = load i8, ptr %14, align 4
  %16 = and i8 %15, -2
  store i8 %16, ptr %14, align 4
  br label %17

17:                                               ; preds = %priority_remove_child.exit, %3
  %.not41 = icmp eq ptr %0, null
  br i1 %.not41, label %42, label %18

18:                                               ; preds = %17
  %19 = load ptr, ptr @Curl_ccalloc, align 8, !tbaa !4
  %20 = tail call ptr %19(i64 noundef 1, i64 noundef 16) #12
  %.not42 = icmp eq ptr %20, null
  br i1 %.not42, label %.thread, label %21

21:                                               ; preds = %18
  %22 = getelementptr inbounds nuw i8, ptr %20, i64 8
  store ptr %1, ptr %22, align 8, !tbaa !110
  %23 = getelementptr inbounds nuw i8, ptr %0, i64 2472
  %24 = load ptr, ptr %23, align 8, !tbaa !114
  %.not43 = icmp ne ptr %24, null
  %brmerge.not = and i1 %2, %.not43
  br i1 %brmerge.not, label %.preheader, label %33

.preheader:                                       ; preds = %21, %.preheader
  %.051 = phi ptr [ %28, %.preheader ], [ %24, %21 ]
  %25 = getelementptr inbounds nuw i8, ptr %.051, i64 8
  %26 = load ptr, ptr %25, align 8, !tbaa !110
  %27 = getelementptr inbounds nuw i8, ptr %26, i64 2464
  store ptr %1, ptr %27, align 8, !tbaa !113
  %28 = load ptr, ptr %.051, align 8, !tbaa !112
  %.not44 = icmp eq ptr %28, null
  br i1 %.not44, label %29, label %.preheader, !llvm.loop !271

29:                                               ; preds = %.preheader
  %30 = getelementptr inbounds nuw i8, ptr %1, i64 2472
  br label %31

31:                                               ; preds = %31, %29
  %.033 = phi ptr [ %30, %29 ], [ %32, %31 ]
  %32 = load ptr, ptr %.033, align 8, !tbaa !109
  %.not45 = icmp eq ptr %32, null
  br i1 %.not45, label %.thread56, label %31, !llvm.loop !272

.thread56:                                        ; preds = %31
  store ptr %24, ptr %.033, align 8, !tbaa !109
  store ptr null, ptr %23, align 8, !tbaa !114
  br label %._crit_edge

33:                                               ; preds = %21
  %.not4652 = icmp eq ptr %24, null
  br i1 %.not4652, label %._crit_edge, label %.lr.ph

.lr.ph:                                           ; preds = %33, %.lr.ph
  %34 = phi ptr [ %41, %.lr.ph ], [ %24, %33 ]
  %.13453 = phi ptr [ %40, %.lr.ph ], [ %23, %33 ]
  %35 = getelementptr inbounds nuw i8, ptr %34, i64 8
  %36 = load ptr, ptr %35, align 8, !tbaa !110
  %37 = getelementptr inbounds nuw i8, ptr %36, i64 2484
  %38 = load i8, ptr %37, align 4
  %39 = and i8 %38, -2
  store i8 %39, ptr %37, align 4
  %40 = load ptr, ptr %.13453, align 8, !tbaa !109
  %41 = load ptr, ptr %40, align 8, !tbaa !109
  %.not46 = icmp eq ptr %41, null
  br i1 %.not46, label %._crit_edge, label %.lr.ph, !llvm.loop !115

._crit_edge:                                      ; preds = %.lr.ph, %.thread56, %33
  %.134.lcssa = phi ptr [ %23, %33 ], [ %23, %.thread56 ], [ %40, %.lr.ph ]
  store ptr %20, ptr %.134.lcssa, align 8, !tbaa !109
  br label %42

42:                                               ; preds = %._crit_edge, %17
  store ptr %0, ptr %4, align 8, !tbaa !113
  %43 = getelementptr inbounds nuw i8, ptr %1, i64 2484
  %44 = zext i1 %2 to i8
  %45 = load i8, ptr %43, align 4
  %46 = and i8 %45, -2
  %47 = or disjoint i8 %46, %44
  store i8 %47, ptr %43, align 4
  br label %.thread

.thread:                                          ; preds = %18, %42
  %.1 = phi i32 [ 0, %42 ], [ 27, %18 ]
  ret i32 %.1
}